; Function Attrs: nounwind uwtable
define dso_local i32 @pq_getmsgint(ptr noundef captures(none) %0, i32 noundef %1) local_unnamed_addr #0 {
  switch i32 %1, label %52 [
    i32 1, label %3
    i32 2, label %19
    i32 4, label %36
  ]

3:                                                ; preds = %2
  %4 = getelementptr inbounds nuw i8, ptr %0, i64 8
  %5 = load i32, ptr %4, align 8
  %6 = getelementptr inbounds nuw i8, ptr %0, i64 16
  %7 = load i32, ptr %6, align 8
  %8 = sub i32 %5, %7
  %9 = icmp slt i32 %8, 1
  br i1 %9, label %10, label %pq_copymsgbytes.exit

10:                                               ; preds = %3
  %11 = tail call zeroext i1 @errstart_cold(i32 noundef 21, ptr noundef null) #11
  tail call void @llvm.assume(i1 %11)
  %12 = tail call i32 @errcode(i32 noundef 16908800) #9
  %13 = tail call i32 (ptr, ...) @errmsg(ptr noundef nonnull @.str.3) #9
  tail call void @errfinish(ptr noundef nonnull @.str.1, i32 noundef 533, ptr noundef nonnull @__func__.pq_copymsgbytes) #9
  unreachable

pq_copymsgbytes.exit:                             ; preds = %3
  %14 = load ptr, ptr %0, align 8
  %15 = sext i32 %7 to i64
  %16 = getelementptr inbounds i8, ptr %14, i64 %15
  %.0.copyload10 = load i8, ptr %16, align 1
  %17 = add i32 %7, 1
  store i32 %17, ptr %6, align 8
  %18 = zext i8 %.0.copyload10 to i32
  br label %55

19:                                               ; preds = %2
  %20 = getelementptr inbounds nuw i8, ptr %0, i64 8
  %21 = load i32, ptr %20, align 8
  %22 = getelementptr inbounds nuw i8, ptr %0, i64 16
  %23 = load i32, ptr %22, align 8
  %24 = sub i32 %21, %23
  %25 = icmp slt i32 %24, 2
  br i1 %25, label %26, label %pq_copymsgbytes.exit5

26:                                               ; preds = %19
  %27 = tail call zeroext i1 @errstart_cold(i32 noundef 21, ptr noundef null) #11
  tail call void @llvm.assume(i1 %27)
  %28 = tail call i32 @errcode(i32 noundef 16908800) #9
  %29 = tail call i32 (ptr, ...) @errmsg(ptr noundef nonnull @.str.3) #9
  tail call void @errfinish(ptr noundef nonnull @.str.1, i32 noundef 533, ptr noundef nonnull @__func__.pq_copymsgbytes) #9
  unreachable

pq_copymsgbytes.exit5:                            ; preds = %19
  %30 = load ptr, ptr %0, align 8
  %31 = sext i32 %23 to i64
  %32 = getelementptr inbounds i8, ptr %30, i64 %31
  %.0.copyload8 = load i16, ptr %32, align 1
  %33 = add i32 %23, 2
  store i32 %33, ptr %22, align 8
  %34 = tail call i16 @llvm.bswap.i16(i16 %.0.copyload8)
  %35 = zext i16 %34 to i32
  br label %55

36:                                               ; preds = %2
  %37 = getelementptr inbounds nuw i8, ptr %0, i64 8
  %38 = load i32, ptr %37, align 8
  %39 = getelementptr inbounds nuw i8, ptr %0, i64 16
  %40 = load i32, ptr %39, align 8
  %41 = sub i32 %38, %40
  %42 = icmp slt i32 %41, 4
  br i1 %42, label %43, label %pq_copymsgbytes.exit6

43:                                               ; preds = %36
  %44 = tail call zeroext i1 @errstart_cold(i32 noundef 21, ptr noundef null) #11
  tail call void @llvm.assume(i1 %44)
  %45 = tail call i32 @errcode(i32 noundef 16908800) #9
  %46 = tail call i32 (ptr, ...) @errmsg(ptr noundef nonnull @.str.3) #9
  tail call void @errfinish(ptr noundef nonnull @.str.1, i32 noundef 533, ptr noundef nonnull @__func__.pq_copymsgbytes) #9
  unreachable

pq_copymsgbytes.exit6:                            ; preds = %36
  %47 = load ptr, ptr %0, align 8
  %48 = sext i32 %40 to i64
  %49 = getelementptr inbounds i8, ptr %47, i64 %48
  %.0.copyload = load i32, ptr %49, align 1
  %50 = add i32 %40, 4
  store i32 %50, ptr %39, align 8
  %51 = tail call i32 @llvm.bswap.i32(i32 %.0.copyload)
  br label %55

52:                                               ; preds = %2
  %53 = tail call zeroext i1 @errstart_cold(i32 noundef 21, ptr noundef null) #11
  tail call void @llvm.assume(i1 %53)
  %54 = tail call i32 (ptr, ...) @errmsg_internal(ptr noundef nonnull @.str.2, i32 noundef %1) #9
  tail call void @errfinish(ptr noundef nonnull @.str.1, i32 noundef 437, ptr noundef nonnull @__func__.pq_getmsgint) #9
  unreachable

55:                                               ; preds = %pq_copymsgbytes.exit6, %pq_copymsgbytes.exit5, %pq_copymsgbytes.exit
  %.0 = phi i32 [ %51, %pq_copymsgbytes.exit6 ], [ %35, %pq_copymsgbytes.exit5 ], [ %18, %pq_copymsgbytes.exit ]
  ret i32 %.0
}